LIBRARY bacula.dll
EXPORTS
_Z10SHA1UpdateP11SHA1ContextPKhj
_Z10__snprintfPcjPKcz
_Z10__vsprintfPcPKcS_
_Z10_db_unlockPKciP4B_DB
_Z10add_commasPcS_
_Z10b_free_jcrPKciP3JCR
_Z10bnet_closeP5BSOCK
_Z10bnet_fsendP5BSOCKPKcz
_Z10bstrftimesPcix
_Z10bvsnprintfPciPKcS_
_Z10edit_int64xPc
_Z10edit_utimexPci
_Z10find_filesP3JCRP6FF_PKTPFiS2_PvbES3_
_Z10init_bsockP3JCRiPKcS2_iP8sockaddr
_Z10isAbsolutePKc
_Z10my_name_isiPPcPKc
_Z10open_bpipePciPKc
_Z10parse_argsPcPS_PiS0_S0_i
_Z10sem_unlockP13s_semlock_tag
_Z10sm_reallocPKciPvj
_Z10term_bsockP5BSOCK
_Z10var_configP6var_st12var_config_tz
_Z10var_createPP6var_st
_Z10var_expandP6var_stPKciPPcPii
_Z10var_formatP6var_stPPciPKcz
_Z10workq_initP9workq_tagiPFPvS1_E
_Z11__vsnprintfPcjPKcS_
_Z11base64_initv
_Z11bash_spacesPc
_Z11bash_spacesR8POOL_MEM
_Z11bget_handleP5BFILE
_Z11bmicrosleepll
_Z11close_bpipeP7s_bpipe
_Z11close_wpipeP7s_bpipe
_Z11create_fileP3JCRP4ATTRP5BFILEi
_Z11date_decodedPjPhS0_
_Z11date_encodejhh
_Z11db_strerrorP4B_DB
_Z11decode_statPcP4statPi
_Z11edit_uint64yPc
_Z11encode_modetPc
_Z11encode_statPcP6FF_PKTi
_Z11encode_timelPc
_Z11from_base64PxPc
_Z11init_cryptov
_Z11int32_LE2BEPii
_Z11int64_LE2BEPxx
_Z11is_a_numberPKc
_Z11is_buf_zeroPci
_Z11list_dashesP4B_DBPFvPvPKcES1_
_Z11list_resultP3JCRP4B_DBPFvPvPKcES3_11e_list_type
_Z11match_filesP3JCRP6FF_PKTPFiS2_PvbES3_
_Z11restore_cwdPK9saved_cwdPKcS3_
_Z11run_programPciS_
_Z11run_scriptsP3JCRP5alistPKc
_Z11rwl_destroyP12s_rwlock_tag
_Z11scan_to_eolP13s_lex_context
_Z11sem_destroyP13s_semlock_tag
_Z11sem_trylockP13s_semlock_tag
_Z11skip_spacesPPc
_Z11strncasecmpPKcS0_i
_Z11time_decodedPhS_S_Pf
_Z11time_encodehhhf
_Z11tree_relcwdPcP11s_tree_rootP11s_tree_node
_Z11unlock_jobsv
_Z11var_destroyP6var_st
_Z11var_formatvP6var_stPPciPKcS1_
_Z11win32_cgetsPci
_Z11win32_chdirPKc
_Z11win32_fputsPKcP6_iobuf
_Z11win32_mkdirPKc
_Z12MD5TransformPjS_
_Z12UTF8_2_wcharPPcPKc
_Z12actuallyfreePv
_Z12add_msg_destP4MSGSiiPcS1_
_Z12bnet_connectP3JCRiiPKcPcS3_ii
_Z12bstrftime_ncPcix
_Z12bstrftime_nyPcix
_Z12daemon_startv
_Z12db_sql_queryP4B_DBPKcPFiPviPPcES3_
_Z12gettimeofdayP7timevalP8timezone
_Z12init_signalsPFviE
_Z12is_bnet_stopP5BSOCK
_Z12jcr_walk_endP3JCR
_Z12job_end_pushP3JCRPFvS0_PvES1_
_Z12lex_get_charP13s_lex_context
_Z12new_watchdogv
_Z12rem_msg_destP4MSGSiiPc
_Z12rwl_readlockP12s_rwlock_tag
_Z12serial_btimePPhx
_Z12serial_int16PPhs
_Z12serial_int32PPhi
_Z12serial_int64PPhx
_Z12sm_check_rtnPKcib
_Z12sm_new_ownerPKciPc
_Z12str_to_int64Pc
_Z12str_to_utimePc
_Z12tree_getpathP11s_tree_nodePci
_Z12var_strerrorP6var_st8var_rc_t
_Z12var_unescapeP6var_stPKciPcii
_Z12wchar_2_UTF8PcPKwi
_Z12win32_getcwdPci
_Z12win32_unlinkPKc
_Z12workq_removeP9workq_tagP13workq_ele_tag
_Z13bin_to_base64PcS_i
_Z13bnet_get_peerP5BSOCKPci
_Z13bnet_strerrorP5BSOCK
_Z13btime_to_unixx
_Z13cram_md5_authP5BSOCKPci
_Z13db_next_indexP3JCRP4B_DBPcS3_
_Z13decode_LinkFIPcP4stat
_Z13find_one_fileP3JCRP6FF_PKTPFiS2_PvbES3_Pcjb
_Z13free_msgs_resP4MSGS
_Z13get_jcr_by_idj
_Z13is_an_integerPKc
_Z13is_bnet_errorP5BSOCK
_Z13is_name_validPcPS_
_Z13jcr_walk_nextP3JCR
_Z13lex_get_tokenP13s_lex_contexti
_Z13lex_open_fileP13s_lex_contextPKcPFvS2_iS0_S2_zE
_Z13new_runscriptv
_Z13rwl_writelockP12s_rwlock_tag
_Z13serial_stringPPhPKc
_Z13serial_uint16PPht
_Z13serial_uint32PPhj
_Z13serial_uint64PPhy
_Z13sm_get_memoryPKcii
_Z13stop_watchdogv
_Z13str_to_uint64Pc
_Z13term_find_oneP6FF_PKT
_Z13unbash_spacesPc
_Z13unbash_spacesR8POOL_MEM
_Z13workq_destroyP9workq_tag
_Z14actuallycallocjj
_Z14actuallymallocj
_Z14bnet_wait_dataP5BSOCKi
_Z14btime_to_utimex
_Z14cleanup_cryptov
_Z14copy_runscriptP9RUNSCRIPT
_Z14edit_job_codesP3JCRPcS1_PKc
_Z14free_addressesP5dlist
_Z14free_runscriptP9RUNSCRIPT
_Z14have_win32_apiv
_Z14jcr_walk_startv
_Z14lex_close_fileP13s_lex_context
_Z14lex_tok_to_stri
_Z14lex_unget_charP13s_lex_context
_Z14make_tree_pathPcP11s_tree_root
_Z14rwl_readunlockP12s_rwlock_tag
_Z14serial_float64PPhd
_Z14set_attributesP3JCRP4ATTRP5BFILE
_Z14size_to_uint64PciPy
_Z14skip_nonspacesPPc
_Z14start_watchdogv
_Z14unserial_btimePPh
_Z14unserial_int16PPh
_Z14unserial_int32PPh
_Z15actuallyreallocPvj
_Z15bnet_tls_clientP11TLS_ContextP5BSOCK
_Z15bnet_tls_serverP11TLS_ContextP5BSOCKP5alist
_Z15create_pid_filePcPKci
_Z15crypto_sign_newv
_Z15crypto_strerror14crypto_error_t
_Z15db_get_pool_idsP3JCRP4B_DBPiPPj
_Z15delete_pid_filePcPKci
_Z15enh_fnmatch_subPKcS0_ii
_Z15free_runscriptsP5alist
_Z15init_find_filesv
_Z15init_stack_dumpv
_Z15is_win32_streami
_Z15job_type_to_stri
_Z15new_tls_contextPKcS0_S0_S0_PFiPciPKvES3_S0_b
_Z15print_ls_outputP3JCRP4ATTR
_Z15read_state_filePcPKci
_Z15rwl_readtrylockP12s_rwlock_tag
_Z15rwl_writeunlockP12s_rwlock_tag
_Z15store_addressesP13s_lex_contextP8RES_ITEMii
_Z15stream_to_asciii
_Z15term_find_filesP6FF_PKT
_Z15tls_bsock_readnP5BSOCKPci
_Z15unserial_stringPPhPc
_Z15unserial_uint16PPh
_Z15unserial_uint32PPh
_Z15unserial_uint64PPh
_Z16crypto_sign_freeP9Signature
_Z16date_time_decodeP9date_timePjPhS2_S2_S2_S2_Pf
_Z16date_time_encodeP9date_timejhhhhhf
_Z16db_escape_stringPcS_i
_Z16db_get_media_idsP3JCRP4B_DBjPiPPj
_Z16db_init_databaseP3JCRPKcS2_S2_S2_iS2_i
_Z16db_open_databaseP3JCRP4B_DB
_Z16dequeue_messagesP3JCR
_Z16dispatch_messageP3JCRilPc
_Z16encode_attribsExP3JCRPcP6FF_PKT
_Z16file_is_excludedP6FF_PKTPKc
_Z16file_is_includedP6FF_PKTPKc
_Z16free_tls_contextP11TLS_Context
_Z16get_current_timeP9date_time
_Z16init_console_msgPKc
_Z16insert_tree_nodePcS_iP11s_tree_rootP11s_tree_node
_Z16job_level_to_stri
_Z16make_session_keyPcS_i
_Z16rwl_writetrylockP12s_rwlock_tag
_Z16set_find_optionsP6FF_PKTil
_Z16set_win32_backupP5BFILE
_Z16stop_bsock_timerP10s_btimer_t
_Z16stop_child_timerP10s_btimer_t
_Z16tls_bsock_acceptP5BSOCK
_Z16tls_bsock_writenP5BSOCKPci
_Z16unserial_float64PPh
_Z16wchar_win32_pathPKcPw
_Z16write_state_filePcPKci
_Z17InitWinAPIWrapperv
_Z17SetVSSPathConvertPFiPKcPciEPFiPKwPwiE
_Z17bnet_host2ipaddrsPKciPS0_
_Z17bnet_set_blockingP5BSOCK
_Z17bnet_sig_to_asciiP5BSOCK
_Z17close_memory_poolv
_Z17cram_md5_get_authP5BSOCKPcPi
_Z17crypto_cipher_newP14Crypto_SessionbPj
_Z17crypto_digest_new15crypto_digest_t
_Z17date_time_compareP9date_timeS0_
_Z17db_close_databaseP3JCRP4B_DB
_Z17db_get_client_idsP3JCRP4B_DBPiPPj
_Z17db_get_job_recordP3JCRP4B_DBP7JOB_DBR
_Z17db_get_mac_recordP3JCRP4B_DBP7MAC_DBR
_Z17db_list_sql_queryP3JCRP4B_DBPKcPFvPvS4_ES5_i11e_list_type
_Z17duration_to_utimePcPx
_Z17get_current_btimev
_Z17get_first_addressP5dlistPci
_Z17job_status_to_stri
_Z17openssl_save_prngv
_Z17openssl_seed_prngv
_Z17register_watchdogP12s_watchdog_t
_Z17sockaddr_get_portPK8sockaddr
_Z17sockaddr_to_asciiPK8sockaddrPci
_Z17start_bsock_timerP5BSOCKj
_Z17start_child_timerij
_Z17stop_thread_timerP10s_btimer_t
_Z17tls_bsock_connectP5BSOCK
_Z18CreateChildProcessPKcPvS1_S1_
_Z18bnet_thread_serverP5dlistiP9workq_tagPFPvS3_E
_Z18crypto_cipher_freeP14Cipher_Context
_Z18crypto_digest_freeP6Digest
_Z18crypto_digest_nameP6Digest
_Z18crypto_keypair_dupP12X509_Keypair
_Z18crypto_keypair_newv
_Z18crypto_session_new15crypto_cipher_tP5alist
_Z18crypto_sign_decodePKvj
_Z18crypto_sign_encodeP9SignaturePvPj
_Z18crypto_sign_verifyP9SignatureP12X509_KeypairP6Digest
_Z18cvt_ftime_to_utimeRK9_FILETIME
_Z18cvt_utime_to_ftimeRKlR9_FILETIME
_Z18db_end_transactionP3JCRP4B_DB
_Z18db_find_last_jobidP3JCRP4B_DBPKcP7JOB_DBR
_Z18db_get_pool_recordP3JCRP4B_DBP8POOL_DBR
_Z18db_list_job_totalsP3JCRP4B_DBP7JOB_DBRPFvPvPKcES5_
_Z18do_shell_expansionPci
_Z18free_getuser_cachev
_Z18get_jcr_by_sessionjj
_Z18get_sql_record_maxP3JCRP4B_DB
_Z18init_jcr_subsystemv
_Z18is_portable_backupP5BFILE
_Z18jobstatus_to_asciiiPci
_Z18new_tls_connectionP11TLS_Contexti
_Z18select_data_streamP6FF_PKT
_Z18set_jcr_job_statusP3JCRi
_Z18sm_get_pool_memoryPKcii
_Z18start_thread_timerP10pthread_t_j
_Z18tls_bsock_shutdownP5BSOCK
_Z18unix_name_to_win32PPcS_
_Z19bnet_wait_data_intrP5BSOCKi
_Z19build_addresses_strP5dlistPci
_Z19crypto_keypair_freeP12X509_Keypair
_Z19crypto_session_freeP14Crypto_Session
_Z19db_find_next_volumeP3JCRP4B_DBibP9MEDIA_DBR
_Z19db_get_media_recordP3JCRP4B_DBP9MEDIA_DBR
_Z19db_list_job_recordsP3JCRP4B_DBP7JOB_DBRPFvPvPKcES5_11e_list_type
_Z19db_mark_file_recordP3JCRP4B_DBjj
_Z19free_getgroup_cachev
_Z19free_tls_connectionP14TLS_Connection
_Z19init_last_jobs_listv
_Z19lock_last_jobs_listv
_Z19openssl_post_errorsiPKc
_Z19read_last_jobs_listiy
_Z19set_portable_backupP5BFILE
_Z19sm_free_pool_memoryPKciPc
_Z19split_path_and_fileP3JCRP4B_DBPKc
_Z19strip_leading_spacePc
_Z19strip_trailing_junkPc
_Z19term_last_jobs_listv
_Z19unregister_watchdogP12s_watchdog_t
_Z20bnet_set_buffer_sizeP5BSOCKji
_Z20bnet_set_nonblockingP5BSOCK
_Z20check_tables_versionP3JCRP4B_DB
_Z20crypto_cipher_updateP14Cipher_ContextPKvjS2_Pj
_Z20crypto_digest_updateP6DigestPKvj
_Z20db_create_job_recordP3JCRP4B_DBP7JOB_DBR
_Z20db_create_mac_recordP3JCRP4B_DBP7MAC_DBR
_Z20db_get_client_recordP3JCRP4B_DBP10CLIENT_DBR
_Z20db_list_pool_recordsP3JCRP4B_DBP8POOL_DBRPFvPvPKcES5_11e_list_type
_Z20db_start_transactionP3JCRP4B_DB
_Z20get_jcr_by_full_namePc
_Z20make_unique_filenamePPciS_
_Z20openssl_init_threadsv
_Z20scan_to_next_not_eolP13s_lex_context
_Z20store_addresses_portP13s_lex_contextP8RES_ITEMii
_Z20write_last_jobs_listiy
_Z21Win32ConvCleanupCachev
_Z21bnet_despool_to_bsockP5BSOCKPFvlEl
_Z21bnet_restore_blockingP5BSOCKi
_Z21crypto_session_decodePKvjP5alistPP14Crypto_Session
_Z21crypto_session_encodeP14Crypto_SessionPvPj
_Z21db_create_pool_recordP3JCRP4B_DBP8POOL_DBR
_Z21db_delete_pool_recordP3JCRP4B_DBP8POOL_DBR
_Z21db_get_counter_recordP3JCRP4B_DBP11COUNTER_DBR
_Z21db_get_fileset_recordP3JCRP4B_DBP11FILESET_DBR
_Z21db_list_files_for_jobP3JCRP4B_DBjPFvPvPKcES3_
_Z21db_list_media_recordsP3JCRP4B_DBP9MEDIA_DBRPFvPvPKcES5_11e_list_type
_Z21db_purge_media_recordP3JCRP4B_DBP9MEDIA_DBR
_Z21db_update_pool_recordP3JCRP4B_DBP8POOL_DBR
_Z21generate_daemon_eventP3JCRPKc
_Z21make_wchar_win32_pathPcPi
_Z21set_working_directoryPc
_Z21sm_sizeof_pool_memoryPKciPc
_Z21unlock_last_jobs_listv
_Z22crypto_cipher_finalizeP14Cipher_ContextPvPj
_Z22crypto_digest_finalizeP6DigestPvPj
_Z22crypto_keypair_has_keyPKc
_Z22crypto_sign_add_signerP9SignatureP6DigestP12X509_Keypair
_Z22crypto_sign_get_digestP9SignatureP12X509_KeypairPP6Digest
_Z22db_create_media_recordP3JCRP4B_DBP9MEDIA_DBR
_Z22db_delete_media_recordP3JCRP4B_DBP9MEDIA_DBR
_Z22db_find_job_start_timeP3JCRP4B_DBP7JOB_DBRPPc
_Z22db_list_client_recordsP3JCRP4B_DBPFvPvPKcES3_11e_list_type
_Z22db_update_media_recordP3JCRP4B_DBP9MEDIA_DBR
_Z22get_next_included_fileP6FF_PKTP15s_included_file
_Z22get_win32_drivelettersP6FF_PKTPc
_Z22init_default_addressesPP5dlisti
_Z22sm_realloc_pool_memoryPKciPci
_Z22strip_trailing_newlinePc
_Z22strip_trailing_slashesPc
_Z23bnet_stop_thread_serverP10pthread_t_
_Z23conv_unix_to_win32_pathPKcPcm
_Z23crypto_keypair_load_keyP12X509_KeypairPKcPFiPciPKvES5_
_Z23db_create_client_recordP3JCRP4B_DBP10CLIENT_DBR
_Z23db_create_device_recordP3JCRP4B_DBP10DEVICE_DBR
_Z23db_get_job_volume_namesP3JCRP4B_DBjPPc
_Z23db_get_num_pool_recordsP3JCRP4B_DB
_Z23db_update_client_recordP3JCRP4B_DBP10CLIENT_DBR
_Z23edit_uint64_with_commasyPc
_Z23edit_uint64_with_suffixyPc
_Z23get_jcr_by_partial_namePc
_Z23init_python_interpreterPKcS0_S0_
_Z23openssl_cleanup_threadsv
_Z23print_memory_pool_statsv
_Z23run_program_full_outputPciS_
_Z23split_path_and_filenamePKcPPcPiS2_S3_
_Z23store_addresses_addressP13s_lex_contextP8RES_ITEMii
_Z23term_python_interpreterv
_Z24build_attr_output_fnamesP3JCRP4ATTR
_Z24crypto_keypair_load_certP12X509_KeypairPKc
_Z24db_create_counter_recordP3JCRP4B_DBP11COUNTER_DBR
_Z24db_create_fileset_recordP3JCRP4B_DBP11FILESET_DBR
_Z24db_create_storage_recordP3JCRP4B_DBP11STORAGE_DBR
_Z24db_find_failed_job_sinceP3JCRP4B_DBP7JOB_DBRPcRi
_Z24db_get_num_media_recordsP3JCRP4B_DB
_Z24db_list_jobmedia_recordsP3JCRP4B_DBjPFvPvPKcES3_11e_list_type
_Z24db_make_inchanger_uniqueP3JCRP4B_DBP9MEDIA_DBR
_Z24db_update_counter_recordP3JCRP4B_DBP11COUNTER_DBR
_Z24db_update_job_end_recordP3JCRP4B_DBP7JOB_DBR
_Z24db_update_media_defaultsP3JCRP4B_DBP9MEDIA_DBR
_Z24db_update_storage_recordP3JCRP4B_DBP11STORAGE_DBR
_Z24enable_backup_privilegesP3JCRi
_Z24get_first_port_net_orderP5dlist
_Z24unpack_attributes_recordP3JCRiPcP4ATTR
_Z25add_fname_to_exclude_listP6FF_PKTPKc
_Z25add_fname_to_include_listP6FF_PKTiPKc
_Z25crypto_digest_stream_typei
_Z25db_create_jobmedia_recordP3JCRP4B_DBP12JOBMEDIA_DBR
_Z25get_first_port_host_orderP5dlist
_Z25sm_check_pool_memory_sizePKciPci
_Z25tls_postconnect_verify_cnP14TLS_ConnectionP5alist
_Z26db_create_mediatype_recordP3JCRP4B_DBP13MEDIATYPE_DBR
_Z26db_update_job_start_recordP3JCRP4B_DBP7JOB_DBR
_Z26processWin32BackupAPIBlockP5BFILEPvl
_Z26term_include_exclude_filesP6FF_PKT
_Z27crypto_default_pem_callbackPciPKv
_Z27garbage_collect_memory_poolv
_Z27is_restore_stream_supportedi
_Z27sockaddr_get_port_net_orderPK8sockaddr
_Z27tls_postconnect_verify_hostP14TLS_ConnectionPKc
_Z28bnet_suppress_error_messagesP5BSOCKb
_Z28db_add_digest_to_file_recordP3JCRP4B_DBjPci
_Z28db_get_job_volume_parametersP3JCRP4B_DBjPP10VOL_PARAMS
_Z28make_win32_path_UTF8_2_wcharPPcPKcPi
_Z29db_get_file_attributes_recordP3JCRP4B_DBPcP7JOB_DBRP8FILE_DBR
_Z29lex_set_default_error_handlerP13s_lex_context
_Z2_pPP16pthread_mutex_t_
_Z2_vPP16pthread_mutex_t_
_Z32db_create_file_attributes_recordP3JCRP4B_DBP8ATTR_DBR
_Z32lex_set_error_handler_error_typeP13s_lex_contexti
_Z4JmsgP3JCRilPKcz
_Z4MmsgPPcPKcz
_Z4MmsgR8POOL_MEMPKcz
_Z4MmsgRPcPKcz
_Z4QmsgP3JCRilPKcz
_Z4doprPcjPKcS_PFvS_PjjiE
_Z4dropPcS_
_Z4forkv
_Z4killii
_Z4pipePi
_Z4plugIjEvRT_y
_Z4plugIlEvRT_y
_Z4plugImEvRT_y
_Z4plugIsEvRT_y
_Z4plugItEvRT_y
_Z4plugIyEvRT_y
_Z4statPKcP4stat
_Z5binitP5BFILE
_Z5bopenP5BFILEPKcit
_Z5breadP5BFILEPvj
_Z5chmodPKct
_Z5chownPKcjj
_Z5d_msgPKciiS0_z
_Z5e_msgPKciiiS0_z
_Z5fcntlii
_Z5fcntliil
_Z5fstatiP4stat
_Z5j_msgPKciP3JCRilS0_z
_Z5lcasePc
_Z5lstatPKcP4stat
_Z5m_msgPKciPPcS0_z
_Z5m_msgPKciRPcS0_z
_Z5p_msgPKciiS0_z
_Z5q_msgPKciP3JCRilS0_z
_Z5qnextP7b_queueS0_
_Z5sleepi
_Z5t_msgPKciiS0_z
_Z6bcloseP5BFILE
_Z6bcrc32Phi
_Z6bfgetsPciP6_iobuf
_Z6blseekP5BFILEli
_Z6bwriteP5BFILEPvj
_Z6execvpPKcPPc
_Z6fstypePKcPci
_Z6lchownPKcjj
_Z6randomv
_Z6tm_womii
_Z6tm_woyl
_Z7MD5InitP10MD5Context
_Z7QueryDBPKciP3JCRP4B_DBPc
_Z7bcallocjj
_Z7bsscanfPKcS0_z
_Z7bstrcmpPKcS0_
_Z7cstrlenPKc
_Z7fstrschPKcS0_
_Z7geteuidv
_Z7getuserjPci
_Z7new_jcriPFvP3JCRE
_Z7opendirPKc
_Z7openlogPKcii
_Z7qdchainP7b_queue
_Z7qinsertP7b_queueS0_
_Z7qremoveP7b_queue
_Z7sm_dumpb
_Z7sm_freePKciPv
_Z7srandomj
_Z7waitpidiPii
_Z8DeleteDBPKciP3JCRP4B_DBPc
_Z8InsertDBPKciP3JCRP4B_DBPc
_Z8MD5FinalPhP10MD5Context
_Z8SHA1InitP11SHA1Context
_Z8UpdateDBPKciP3JCRP4B_DBPc
_Z8WSA_Initv
_Z8_db_lockPKciP4B_DB
_Z8b_mallocPKcij
_Z8bget_msgP5BSOCK
_Z8bnet_sigP5BSOCKi
_Z8breallocPvj
_Z8bstrncatPcPKci
_Z8bstrncatPcR8POOL_MEMi
_Z8bstrncpyPcPKci
_Z8bstrncpyPcR8POOL_MEMi
_Z8closedirPv
_Z8closelogv
_Z8free_cwdP9saved_cwd
_Z8getArgv0PKc
_Z8getgrgidj
_Z8getgroupjPci
_Z8getpwuidj
_Z8hmac_md5PhiS_iS_
_Z8init_msgP3JCRP4MSGS
_Z8is_bopenP5BFILE
_Z8new_attrv
_Z8new_treei
_Z8next_argPPc
_Z8pathconfPKci
_Z8readlinkPKcPci
_Z8rwl_initP12s_rwlock_tag
_Z8save_cwdP9saved_cwd
_Z8sem_initP13s_semlock_tagi
_Z8sem_lockP13s_semlock_tag
_Z8set_progP5BFILEPcP3JCR
_Z8sm_checkPKcib
_Z8term_msgv
_Z8tree_cwdPcP11s_tree_rootP11s_tree_node
_Z9ErrorExitPKc
_Z9MD5UpdateP10MD5ContextPhj
_Z9SHA1FinalP11SHA1ContextPh
_Z9__sprintfPcPKcz
_Z9bnet_recvP5BSOCK
_Z9bnet_sendP5BSOCK
_Z9bsnprintfPciPKcz
_Z9bstrerroriPcj
_Z9bstrftimePcix
_Z9bstrutimePcix
_Z9close_msgP3JCR
_Z9drivetypePKcPci
_Z9dup_bsockP5BSOCK
_Z9free_attrP4ATTR
_Z9free_treeP11s_tree_root
_Z9get_tracev
_Z9inet_atonPKcP7in_addr
_Z9lock_jobsv
_Z9make_pathP3JCRPKciijjiPc
_Z9nanosleepPK8timespecPS_
_Z9pm_strcatPPcPKc
_Z9pm_strcatR8POOL_MEMPKc
_Z9pm_strcatRPcPKc
_Z9pm_strcatRPcR8POOL_MEM
_Z9pm_strcpyPPcPKc
_Z9pm_strcpyR8POOL_MEMPKc
_Z9pm_strcpyRPcPKc
_Z9pm_strcpyRPcR8POOL_MEM
_Z9readdir_rPvP6direntPS1_
_Z9set_tracei
_Z9sm_callocPKcijj
_Z9sm_mallocPKcij
_Z9sm_statici
_Z9tm_decodeP9date_timeP2tm
_Z9tm_encodeP9date_timeP2tm
_Z9to_base64xPc
_Z9win_errorP3JCRPcS1_
_Z9win_errorP3JCRPcm
_Z9workq_addP9workq_tagPvPP13workq_ele_tagi
_ZN5alist3getEi
_ZN5alist4lastEv
_ZN5alist4nextEv
_ZN5alist4prevEv
_ZN5alist5firstEv
_ZN5alist6appendEPv
_ZN5alist6removeEi
_ZN5alist7destroyEv
_ZN5alist7prependEPv
_ZN5alist9grow_listEv
_ZN5btree11left_rotateEP5bnode
_ZN5btree12right_rotateEP5bnode
_ZN5btree3anyEP5bnode
_ZN5btree4nextEP5bnode
_ZN5btree5firstEv
_ZN5btree6insertEP5bnodePFiS1_S1_E
_ZN5btree6removeEP5bnode
_ZN5btree6searchEP5bnodePFiS1_S1_E
_ZN5btree7destroyEv
_ZN5dlist12insert_afterEPvS0_
_ZN5dlist13binary_insertEPvPFiS0_S0_E
_ZN5dlist13binary_searchEPvPFiS0_S0_E
_ZN5dlist13insert_beforeEPvS0_
_ZN5dlist22binary_insert_multipleEPvPFiS0_S0_E
_ZN5dlist6appendEPv
_ZN5dlist6removeEPv
_ZN5dlist7destroyEv
_ZN5dlist7prependEPv
_ZN6IPADDR11get_addressEPci
_ZN6IPADDR12get_sockaddrEv
_ZN6IPADDR12set_addr_anyEv
_ZN6IPADDR12set_port_netEt
_ZN6IPADDR16get_sockaddr_lenEv
_ZN6IPADDR17build_address_strEPci
_ZN6IPADDR8set_typeENS_6i_typeE
_ZN6IPADDR9copy_addrEPS_
_ZN6IPADDR9set_addr4EP7in_addr
_ZN6IPADDRC1ERKS_
_ZN6IPADDRC1Ei
_ZN6IPADDRC2ERKS_
_ZN6IPADDRC2Ei
_ZN6berrno20format_win32_messageEv
_ZN6berrno8strerrorEv
_ZN6htable10grow_tableEv
_ZN6htable10hash_indexEPc
_ZN6htable4initEPvS0_i
_ZN6htable4nextEv
_ZN6htable4sizeEv
_ZN6htable5firstEv
_ZN6htable5statsEv
_ZN6htable6insertEPcPv
_ZN6htable6lookupEPc
_ZN6htable7destroyEv
_ZN6htableC1EPvS0_i
_ZN6htableC2EPvS0_i
_ZN6winverC1Ev
_ZN6winverC2Ev
_ZN8POOL_MEM10realloc_pmEi
_ZN8POOL_MEM6strcatEPKc
_ZN8POOL_MEM6strcpyEPKc
_ZN8POOL_MEM8max_sizeEv
_ZN9RUNSCRIPT10set_targetEPKc
_ZN9RUNSCRIPT11set_commandEPKc
_ZN9RUNSCRIPT13reset_defaultEb
_ZN9RUNSCRIPT3runEP3JCRPKc
_ZN9RUNSCRIPT5debugEv
_ZN9RUNSCRIPT8is_localEv
_ZNK5dlist4nextEPKv
_ZNK5dlist4prevEPKv
_ZNK6IPADDR10get_familyEv
_ZNK6IPADDR18get_port_net_orderEv
_ZNK6IPADDR8get_typeEv
b_re_compile_fastmap
b_re_compile_initialize
b_re_compile_pattern
b_re_match
b_re_search
b_re_set_syntax
b_regcomp
b_regerror
b_regexec
b_regfree
enh_fnmatch
fnmatch
syslog
timeout_handler
umask
utime
watchdog_thread
workq_server
